ARM GAS  C:\Users\carles\AppData\Local\Temp\ccygwPHG.s 			page 1


   1              		.syntax unified
   2              		.cpu cortex-m0
   3              		.fpu softvfp
   4              		.eabi_attribute 20, 1
   5              		.eabi_attribute 21, 1
   6              		.eabi_attribute 23, 3
   7              		.eabi_attribute 24, 1
   8              		.eabi_attribute 25, 1
   9              		.eabi_attribute 26, 1
  10              		.eabi_attribute 30, 1
  11              		.eabi_attribute 34, 0
  12              		.eabi_attribute 18, 4
  13              		.thumb
  14              		.syntax unified
  15              		.file	"cyfitter_cfg.c"
  16              		.text
  17              	.Ltext0:
  18              		.cfi_sections	.debug_frame
  19              		.section	.text.cfg_write_bytes32,"ax",%progbits
  20              		.align	2
  21              		.code	16
  22              		.thumb_func
  23              		.type	cfg_write_bytes32, %function
  24              	cfg_write_bytes32:
  25              	.LFB5:
  26              		.file 1 "Generated_Source\\PSoC4\\cyfitter_cfg.c"
   1:Generated_Source\PSoC4/cyfitter_cfg.c **** 
   2:Generated_Source\PSoC4/cyfitter_cfg.c **** /*******************************************************************************
   3:Generated_Source\PSoC4/cyfitter_cfg.c **** * File Name: cyfitter_cfg.c
   4:Generated_Source\PSoC4/cyfitter_cfg.c **** * 
   5:Generated_Source\PSoC4/cyfitter_cfg.c **** * PSoC Creator  4.2
   6:Generated_Source\PSoC4/cyfitter_cfg.c **** *
   7:Generated_Source\PSoC4/cyfitter_cfg.c **** * Description:
   8:Generated_Source\PSoC4/cyfitter_cfg.c **** * This file contains device initialization code.
   9:Generated_Source\PSoC4/cyfitter_cfg.c **** * Except for the user defined sections in CyClockStartupError(), this file should not be modified.
  10:Generated_Source\PSoC4/cyfitter_cfg.c **** * This file is automatically generated by PSoC Creator.
  11:Generated_Source\PSoC4/cyfitter_cfg.c **** *
  12:Generated_Source\PSoC4/cyfitter_cfg.c **** ********************************************************************************
  13:Generated_Source\PSoC4/cyfitter_cfg.c **** * Copyright (c) 2007-2018 Cypress Semiconductor.  All rights reserved.
  14:Generated_Source\PSoC4/cyfitter_cfg.c **** * You may use this file only in accordance with the license, terms, conditions, 
  15:Generated_Source\PSoC4/cyfitter_cfg.c **** * disclaimers, and limitations in the end user license agreement accompanying 
  16:Generated_Source\PSoC4/cyfitter_cfg.c **** * the software package with which this file was provided.
  17:Generated_Source\PSoC4/cyfitter_cfg.c **** ********************************************************************************/
  18:Generated_Source\PSoC4/cyfitter_cfg.c **** 
  19:Generated_Source\PSoC4/cyfitter_cfg.c **** #include <string.h>
  20:Generated_Source\PSoC4/cyfitter_cfg.c **** #include "cytypes.h"
  21:Generated_Source\PSoC4/cyfitter_cfg.c **** #include "cydevice_trm.h"
  22:Generated_Source\PSoC4/cyfitter_cfg.c **** #include "cyfitter.h"
  23:Generated_Source\PSoC4/cyfitter_cfg.c **** #include "CyLib.h"
  24:Generated_Source\PSoC4/cyfitter_cfg.c **** #include "CyLFClk.h"
  25:Generated_Source\PSoC4/cyfitter_cfg.c **** #include "cyfitter_cfg.h"
  26:Generated_Source\PSoC4/cyfitter_cfg.c **** #include "cyapicallbacks.h"
  27:Generated_Source\PSoC4/cyfitter_cfg.c **** 
  28:Generated_Source\PSoC4/cyfitter_cfg.c **** 
  29:Generated_Source\PSoC4/cyfitter_cfg.c **** #if defined(__GNUC__) || defined(__ARMCC_VERSION)
  30:Generated_Source\PSoC4/cyfitter_cfg.c ****     #define CYPACKED 
  31:Generated_Source\PSoC4/cyfitter_cfg.c ****     #define CYPACKED_ATTR __attribute__ ((packed))
ARM GAS  C:\Users\carles\AppData\Local\Temp\ccygwPHG.s 			page 2


  32:Generated_Source\PSoC4/cyfitter_cfg.c ****     #define CYALIGNED __attribute__ ((aligned))
  33:Generated_Source\PSoC4/cyfitter_cfg.c ****     #define CY_CFG_UNUSED __attribute__ ((unused))
  34:Generated_Source\PSoC4/cyfitter_cfg.c ****     #ifndef CY_CFG_SECTION
  35:Generated_Source\PSoC4/cyfitter_cfg.c ****         #define CY_CFG_SECTION __attribute__ ((section(".psocinit")))
  36:Generated_Source\PSoC4/cyfitter_cfg.c ****     #endif
  37:Generated_Source\PSoC4/cyfitter_cfg.c ****     
  38:Generated_Source\PSoC4/cyfitter_cfg.c ****     #if defined(__ARMCC_VERSION)
  39:Generated_Source\PSoC4/cyfitter_cfg.c ****         #define CY_CFG_MEMORY_BARRIER() __memory_changed()
  40:Generated_Source\PSoC4/cyfitter_cfg.c ****     #else
  41:Generated_Source\PSoC4/cyfitter_cfg.c ****         #define CY_CFG_MEMORY_BARRIER() __sync_synchronize()
  42:Generated_Source\PSoC4/cyfitter_cfg.c ****     #endif
  43:Generated_Source\PSoC4/cyfitter_cfg.c ****     
  44:Generated_Source\PSoC4/cyfitter_cfg.c **** #elif defined(__ICCARM__)
  45:Generated_Source\PSoC4/cyfitter_cfg.c ****     #include <intrinsics.h>
  46:Generated_Source\PSoC4/cyfitter_cfg.c **** 
  47:Generated_Source\PSoC4/cyfitter_cfg.c ****     #define CYPACKED __packed
  48:Generated_Source\PSoC4/cyfitter_cfg.c ****     #define CYPACKED_ATTR 
  49:Generated_Source\PSoC4/cyfitter_cfg.c ****     #define CYALIGNED _Pragma("data_alignment=4")
  50:Generated_Source\PSoC4/cyfitter_cfg.c ****     #define CY_CFG_UNUSED _Pragma("diag_suppress=Pe177")
  51:Generated_Source\PSoC4/cyfitter_cfg.c ****     #define CY_CFG_SECTION _Pragma("location=\".psocinit\"")
  52:Generated_Source\PSoC4/cyfitter_cfg.c ****     
  53:Generated_Source\PSoC4/cyfitter_cfg.c ****     #define CY_CFG_MEMORY_BARRIER() __DMB()
  54:Generated_Source\PSoC4/cyfitter_cfg.c ****     
  55:Generated_Source\PSoC4/cyfitter_cfg.c **** #else
  56:Generated_Source\PSoC4/cyfitter_cfg.c ****     #error Unsupported toolchain
  57:Generated_Source\PSoC4/cyfitter_cfg.c **** #endif
  58:Generated_Source\PSoC4/cyfitter_cfg.c **** 
  59:Generated_Source\PSoC4/cyfitter_cfg.c **** #ifndef CYCODE
  60:Generated_Source\PSoC4/cyfitter_cfg.c ****     #define CYCODE
  61:Generated_Source\PSoC4/cyfitter_cfg.c **** #endif
  62:Generated_Source\PSoC4/cyfitter_cfg.c **** #ifndef CYDATA
  63:Generated_Source\PSoC4/cyfitter_cfg.c ****     #define CYDATA
  64:Generated_Source\PSoC4/cyfitter_cfg.c **** #endif
  65:Generated_Source\PSoC4/cyfitter_cfg.c **** #ifndef CYFAR
  66:Generated_Source\PSoC4/cyfitter_cfg.c ****     #define CYFAR
  67:Generated_Source\PSoC4/cyfitter_cfg.c **** #endif
  68:Generated_Source\PSoC4/cyfitter_cfg.c **** #ifndef CYXDATA
  69:Generated_Source\PSoC4/cyfitter_cfg.c ****     #define CYXDATA
  70:Generated_Source\PSoC4/cyfitter_cfg.c **** #endif
  71:Generated_Source\PSoC4/cyfitter_cfg.c **** 
  72:Generated_Source\PSoC4/cyfitter_cfg.c **** 
  73:Generated_Source\PSoC4/cyfitter_cfg.c **** CY_CFG_UNUSED
  74:Generated_Source\PSoC4/cyfitter_cfg.c **** static void CYMEMZERO(void *s, size_t n);
  75:Generated_Source\PSoC4/cyfitter_cfg.c **** CY_CFG_UNUSED
  76:Generated_Source\PSoC4/cyfitter_cfg.c **** static void CYMEMZERO(void *s, size_t n)
  77:Generated_Source\PSoC4/cyfitter_cfg.c **** {
  78:Generated_Source\PSoC4/cyfitter_cfg.c **** 	(void)memset(s, 0, n);
  79:Generated_Source\PSoC4/cyfitter_cfg.c **** }
  80:Generated_Source\PSoC4/cyfitter_cfg.c **** CY_CFG_UNUSED
  81:Generated_Source\PSoC4/cyfitter_cfg.c **** static void CYCONFIGCPY(void *dest, const void *src, size_t n);
  82:Generated_Source\PSoC4/cyfitter_cfg.c **** CY_CFG_UNUSED
  83:Generated_Source\PSoC4/cyfitter_cfg.c **** static void CYCONFIGCPY(void *dest, const void *src, size_t n)
  84:Generated_Source\PSoC4/cyfitter_cfg.c **** {
  85:Generated_Source\PSoC4/cyfitter_cfg.c **** 	(void)memcpy(dest, src, n);
  86:Generated_Source\PSoC4/cyfitter_cfg.c **** }
  87:Generated_Source\PSoC4/cyfitter_cfg.c **** CY_CFG_UNUSED
  88:Generated_Source\PSoC4/cyfitter_cfg.c **** static void CYCONFIGCPYCODE(void *dest, const void *src, size_t n);
ARM GAS  C:\Users\carles\AppData\Local\Temp\ccygwPHG.s 			page 3


  89:Generated_Source\PSoC4/cyfitter_cfg.c **** CY_CFG_UNUSED
  90:Generated_Source\PSoC4/cyfitter_cfg.c **** static void CYCONFIGCPYCODE(void *dest, const void *src, size_t n)
  91:Generated_Source\PSoC4/cyfitter_cfg.c **** {
  92:Generated_Source\PSoC4/cyfitter_cfg.c **** 	(void)memcpy(dest, src, n);
  93:Generated_Source\PSoC4/cyfitter_cfg.c **** }
  94:Generated_Source\PSoC4/cyfitter_cfg.c **** 
  95:Generated_Source\PSoC4/cyfitter_cfg.c **** 
  96:Generated_Source\PSoC4/cyfitter_cfg.c **** 
  97:Generated_Source\PSoC4/cyfitter_cfg.c **** 
  98:Generated_Source\PSoC4/cyfitter_cfg.c **** /* Clock startup error codes                                                   */
  99:Generated_Source\PSoC4/cyfitter_cfg.c **** #define CYCLOCKSTART_NO_ERROR    0u
 100:Generated_Source\PSoC4/cyfitter_cfg.c **** #define CYCLOCKSTART_XTAL_ERROR  1u
 101:Generated_Source\PSoC4/cyfitter_cfg.c **** #define CYCLOCKSTART_32KHZ_ERROR 2u
 102:Generated_Source\PSoC4/cyfitter_cfg.c **** #define CYCLOCKSTART_PLL_ERROR   3u
 103:Generated_Source\PSoC4/cyfitter_cfg.c **** #define CYCLOCKSTART_FLL_ERROR   4u
 104:Generated_Source\PSoC4/cyfitter_cfg.c **** #define CYCLOCKSTART_WCO_ERROR   5u
 105:Generated_Source\PSoC4/cyfitter_cfg.c **** 
 106:Generated_Source\PSoC4/cyfitter_cfg.c **** 
 107:Generated_Source\PSoC4/cyfitter_cfg.c **** #ifdef CY_NEED_CYCLOCKSTARTUPERROR
 108:Generated_Source\PSoC4/cyfitter_cfg.c **** /*******************************************************************************
 109:Generated_Source\PSoC4/cyfitter_cfg.c **** * Function Name: CyClockStartupError
 110:Generated_Source\PSoC4/cyfitter_cfg.c **** ********************************************************************************
 111:Generated_Source\PSoC4/cyfitter_cfg.c **** * Summary:
 112:Generated_Source\PSoC4/cyfitter_cfg.c **** *  If an error is encountered during clock configuration (crystal startup error,
 113:Generated_Source\PSoC4/cyfitter_cfg.c **** *  PLL lock error, etc.), the system will end up here.  Unless reimplemented by
 114:Generated_Source\PSoC4/cyfitter_cfg.c **** *  the customer, this function will stop in an infinite loop.
 115:Generated_Source\PSoC4/cyfitter_cfg.c **** *
 116:Generated_Source\PSoC4/cyfitter_cfg.c **** * Parameters:
 117:Generated_Source\PSoC4/cyfitter_cfg.c **** *   void
 118:Generated_Source\PSoC4/cyfitter_cfg.c **** *
 119:Generated_Source\PSoC4/cyfitter_cfg.c **** * Return:
 120:Generated_Source\PSoC4/cyfitter_cfg.c **** *   void
 121:Generated_Source\PSoC4/cyfitter_cfg.c **** *
 122:Generated_Source\PSoC4/cyfitter_cfg.c **** *******************************************************************************/
 123:Generated_Source\PSoC4/cyfitter_cfg.c **** CY_CFG_UNUSED
 124:Generated_Source\PSoC4/cyfitter_cfg.c **** static void CyClockStartupError(uint8 errorCode);
 125:Generated_Source\PSoC4/cyfitter_cfg.c **** CY_CFG_UNUSED
 126:Generated_Source\PSoC4/cyfitter_cfg.c **** static void CyClockStartupError(uint8 errorCode)
 127:Generated_Source\PSoC4/cyfitter_cfg.c **** {
 128:Generated_Source\PSoC4/cyfitter_cfg.c ****     /* To remove the compiler warning if errorCode not used.                */
 129:Generated_Source\PSoC4/cyfitter_cfg.c ****     errorCode = errorCode;
 130:Generated_Source\PSoC4/cyfitter_cfg.c **** 
 131:Generated_Source\PSoC4/cyfitter_cfg.c ****     /* If we have a clock startup error (bad MHz crystal, PLL lock, etc.),  */
 132:Generated_Source\PSoC4/cyfitter_cfg.c ****     /* we will end up here to allow the customer to implement something to  */
 133:Generated_Source\PSoC4/cyfitter_cfg.c ****     /* deal with the clock condition.                                       */
 134:Generated_Source\PSoC4/cyfitter_cfg.c **** 
 135:Generated_Source\PSoC4/cyfitter_cfg.c **** #ifdef CY_CFG_CLOCK_STARTUP_ERROR_CALLBACK
 136:Generated_Source\PSoC4/cyfitter_cfg.c ****     CY_CFG_Clock_Startup_ErrorCallback();
 137:Generated_Source\PSoC4/cyfitter_cfg.c **** #else
 138:Generated_Source\PSoC4/cyfitter_cfg.c ****     /*  If not using CY_CFG_CLOCK_STARTUP_ERROR_CALLBACK, place your clock startup code here. */
 139:Generated_Source\PSoC4/cyfitter_cfg.c ****     /* `#START CyClockStartupError` */
 140:Generated_Source\PSoC4/cyfitter_cfg.c **** 
 141:Generated_Source\PSoC4/cyfitter_cfg.c **** 
 142:Generated_Source\PSoC4/cyfitter_cfg.c **** 
 143:Generated_Source\PSoC4/cyfitter_cfg.c ****     /* `#END` */
 144:Generated_Source\PSoC4/cyfitter_cfg.c **** 
 145:Generated_Source\PSoC4/cyfitter_cfg.c ****     while(1) {}
ARM GAS  C:\Users\carles\AppData\Local\Temp\ccygwPHG.s 			page 4


 146:Generated_Source\PSoC4/cyfitter_cfg.c **** #endif /* CY_CFG_CLOCK_STARTUP_ERROR_CALLBACK */
 147:Generated_Source\PSoC4/cyfitter_cfg.c **** }
 148:Generated_Source\PSoC4/cyfitter_cfg.c **** #endif
 149:Generated_Source\PSoC4/cyfitter_cfg.c **** 
 150:Generated_Source\PSoC4/cyfitter_cfg.c **** #define CY_CFG_BASE_ADDR_COUNT 6u
 151:Generated_Source\PSoC4/cyfitter_cfg.c **** CYPACKED typedef struct
 152:Generated_Source\PSoC4/cyfitter_cfg.c **** {
 153:Generated_Source\PSoC4/cyfitter_cfg.c **** 	uint8 offset;
 154:Generated_Source\PSoC4/cyfitter_cfg.c **** 	uint8 value;
 155:Generated_Source\PSoC4/cyfitter_cfg.c **** } CYPACKED_ATTR cy_cfg_addrvalue_t;
 156:Generated_Source\PSoC4/cyfitter_cfg.c **** 
 157:Generated_Source\PSoC4/cyfitter_cfg.c **** 
 158:Generated_Source\PSoC4/cyfitter_cfg.c **** 
 159:Generated_Source\PSoC4/cyfitter_cfg.c **** /*******************************************************************************
 160:Generated_Source\PSoC4/cyfitter_cfg.c **** * Function Name: cfg_write_bytes32
 161:Generated_Source\PSoC4/cyfitter_cfg.c **** ********************************************************************************
 162:Generated_Source\PSoC4/cyfitter_cfg.c **** * Summary:
 163:Generated_Source\PSoC4/cyfitter_cfg.c **** *  This function is used for setting up the chip configuration areas that
 164:Generated_Source\PSoC4/cyfitter_cfg.c **** *  contain relatively sparse data.
 165:Generated_Source\PSoC4/cyfitter_cfg.c **** *
 166:Generated_Source\PSoC4/cyfitter_cfg.c **** * Parameters:
 167:Generated_Source\PSoC4/cyfitter_cfg.c **** *   void
 168:Generated_Source\PSoC4/cyfitter_cfg.c **** *
 169:Generated_Source\PSoC4/cyfitter_cfg.c **** * Return:
 170:Generated_Source\PSoC4/cyfitter_cfg.c **** *   void
 171:Generated_Source\PSoC4/cyfitter_cfg.c **** *
 172:Generated_Source\PSoC4/cyfitter_cfg.c **** *******************************************************************************/
 173:Generated_Source\PSoC4/cyfitter_cfg.c **** static void cfg_write_bytes32(const uint32 addr_table[], const cy_cfg_addrvalue_t data_table[]);
 174:Generated_Source\PSoC4/cyfitter_cfg.c **** static void cfg_write_bytes32(const uint32 addr_table[], const cy_cfg_addrvalue_t data_table[])
 175:Generated_Source\PSoC4/cyfitter_cfg.c **** {
  27              		.loc 1 175 0
  28              		.cfi_startproc
  29              		@ args = 0, pretend = 0, frame = 0
  30              		@ frame_needed = 0, uses_anonymous_args = 0
  31              	.LVL0:
  32 0000 F0B5     		push	{r4, r5, r6, r7, lr}
  33              		.cfi_def_cfa_offset 20
  34              		.cfi_offset 4, -20
  35              		.cfi_offset 5, -16
  36              		.cfi_offset 6, -12
  37              		.cfi_offset 7, -8
  38              		.cfi_offset 14, -4
  39              	.LVL1:
 176:Generated_Source\PSoC4/cyfitter_cfg.c **** 	/* For 32-bit little-endian architectures */
 177:Generated_Source\PSoC4/cyfitter_cfg.c **** 	uint32 i, j = 0u;
  40              		.loc 1 177 0
  41 0002 0025     		movs	r5, #0
 178:Generated_Source\PSoC4/cyfitter_cfg.c **** 	for (i = 0u; i < CY_CFG_BASE_ADDR_COUNT; i++)
  42              		.loc 1 178 0
  43 0004 0027     		movs	r7, #0
  44 0006 11E0     		b	.L2
  45              	.LVL2:
  46              	.L5:
  47              	.LBB2:
 179:Generated_Source\PSoC4/cyfitter_cfg.c **** 	{
 180:Generated_Source\PSoC4/cyfitter_cfg.c **** 		uint32 baseAddr = addr_table[i];
  48              		.loc 1 180 0
ARM GAS  C:\Users\carles\AppData\Local\Temp\ccygwPHG.s 			page 5


  49 0008 BB00     		lsls	r3, r7, #2
  50 000a C658     		ldr	r6, [r0, r3]
  51              	.LVL3:
 181:Generated_Source\PSoC4/cyfitter_cfg.c **** 		uint8 count = (uint8)baseAddr;
  52              		.loc 1 181 0
  53 000c F3B2     		uxtb	r3, r6
  54              	.LVL4:
 182:Generated_Source\PSoC4/cyfitter_cfg.c **** 		baseAddr &= 0xFFFFFF00u;
  55              		.loc 1 182 0
  56 000e FF22     		movs	r2, #255
  57 0010 9643     		bics	r6, r2
  58              	.LVL5:
 183:Generated_Source\PSoC4/cyfitter_cfg.c **** 		while (count != 0u)
  59              		.loc 1 183 0
  60 0012 08E0     		b	.L3
  61              	.L4:
 184:Generated_Source\PSoC4/cyfitter_cfg.c **** 		{
 185:Generated_Source\PSoC4/cyfitter_cfg.c **** 			CY_SET_REG8((void *)(baseAddr + data_table[j].offset), data_table[j].value);
  62              		.loc 1 185 0
  63 0014 6A00     		lsls	r2, r5, #1
  64 0016 8A18     		adds	r2, r1, r2
  65 0018 1478     		ldrb	r4, [r2]
  66 001a A419     		adds	r4, r4, r6
  67 001c 5278     		ldrb	r2, [r2, #1]
  68 001e 2270     		strb	r2, [r4]
 186:Generated_Source\PSoC4/cyfitter_cfg.c **** 			j++;
  69              		.loc 1 186 0
  70 0020 0135     		adds	r5, r5, #1
  71              	.LVL6:
 187:Generated_Source\PSoC4/cyfitter_cfg.c **** 			count--;
  72              		.loc 1 187 0
  73 0022 013B     		subs	r3, r3, #1
  74              	.LVL7:
  75 0024 DBB2     		uxtb	r3, r3
  76              	.LVL8:
  77              	.L3:
 183:Generated_Source\PSoC4/cyfitter_cfg.c **** 		{
  78              		.loc 1 183 0
  79 0026 002B     		cmp	r3, #0
  80 0028 F4D1     		bne	.L4
  81              	.LBE2:
 178:Generated_Source\PSoC4/cyfitter_cfg.c **** 	{
  82              		.loc 1 178 0 discriminator 2
  83 002a 0137     		adds	r7, r7, #1
  84              	.LVL9:
  85              	.L2:
 178:Generated_Source\PSoC4/cyfitter_cfg.c **** 	{
  86              		.loc 1 178 0 is_stmt 0 discriminator 1
  87 002c 052F     		cmp	r7, #5
  88 002e EBD9     		bls	.L5
 188:Generated_Source\PSoC4/cyfitter_cfg.c **** 		}
 189:Generated_Source\PSoC4/cyfitter_cfg.c **** 	}
 190:Generated_Source\PSoC4/cyfitter_cfg.c **** }
  89              		.loc 1 190 0 is_stmt 1
  90              		@ sp needed
  91              	.LVL10:
  92              	.LVL11:
ARM GAS  C:\Users\carles\AppData\Local\Temp\ccygwPHG.s 			page 6


  93 0030 F0BD     		pop	{r4, r5, r6, r7, pc}
  94              		.cfi_endproc
  95              	.LFE5:
  96              		.size	cfg_write_bytes32, .-cfg_write_bytes32
  97 0032 C046     		.section	.text.CYMEMZERO,"ax",%progbits
  98              		.align	2
  99              		.code	16
 100              		.thumb_func
 101              		.type	CYMEMZERO, %function
 102              	CYMEMZERO:
 103              	.LFB2:
  77:Generated_Source\PSoC4/cyfitter_cfg.c **** 	(void)memset(s, 0, n);
 104              		.loc 1 77 0
 105              		.cfi_startproc
 106              		@ args = 0, pretend = 0, frame = 0
 107              		@ frame_needed = 0, uses_anonymous_args = 0
 108              	.LVL12:
 109 0000 10B5     		push	{r4, lr}
 110              		.cfi_def_cfa_offset 8
 111              		.cfi_offset 4, -8
 112              		.cfi_offset 14, -4
 113 0002 0A00     		movs	r2, r1
  78:Generated_Source\PSoC4/cyfitter_cfg.c **** }
 114              		.loc 1 78 0
 115 0004 0021     		movs	r1, #0
 116              	.LVL13:
 117 0006 FFF7FEFF 		bl	memset
 118              	.LVL14:
  79:Generated_Source\PSoC4/cyfitter_cfg.c **** CY_CFG_UNUSED
 119              		.loc 1 79 0
 120              		@ sp needed
 121 000a 10BD     		pop	{r4, pc}
 122              		.cfi_endproc
 123              	.LFE2:
 124              		.size	CYMEMZERO, .-CYMEMZERO
 125              		.section	.psocinit,"ax",%progbits
 126              		.align	2
 127              		.code	16
 128              		.thumb_func
 129              		.type	ClockSetup, %function
 130              	ClockSetup:
 131              	.LFB6:
 191:Generated_Source\PSoC4/cyfitter_cfg.c **** 
 192:Generated_Source\PSoC4/cyfitter_cfg.c **** 
 193:Generated_Source\PSoC4/cyfitter_cfg.c **** /*******************************************************************************
 194:Generated_Source\PSoC4/cyfitter_cfg.c **** * Function Name: ClockSetup
 195:Generated_Source\PSoC4/cyfitter_cfg.c **** ********************************************************************************
 196:Generated_Source\PSoC4/cyfitter_cfg.c **** *
 197:Generated_Source\PSoC4/cyfitter_cfg.c **** * Summary:
 198:Generated_Source\PSoC4/cyfitter_cfg.c **** *   Performs the initialization of all of the clocks in the device based on the
 199:Generated_Source\PSoC4/cyfitter_cfg.c **** *   settings in the Clock tab of the DWR.  This includes enabling the requested
 200:Generated_Source\PSoC4/cyfitter_cfg.c **** *   clocks and setting the necessary dividers to produce the desired frequency. 
 201:Generated_Source\PSoC4/cyfitter_cfg.c **** *
 202:Generated_Source\PSoC4/cyfitter_cfg.c **** * Parameters:
 203:Generated_Source\PSoC4/cyfitter_cfg.c **** *   void
 204:Generated_Source\PSoC4/cyfitter_cfg.c **** *
 205:Generated_Source\PSoC4/cyfitter_cfg.c **** * Return:
ARM GAS  C:\Users\carles\AppData\Local\Temp\ccygwPHG.s 			page 7


 206:Generated_Source\PSoC4/cyfitter_cfg.c **** *   void
 207:Generated_Source\PSoC4/cyfitter_cfg.c **** *
 208:Generated_Source\PSoC4/cyfitter_cfg.c **** *******************************************************************************/
 209:Generated_Source\PSoC4/cyfitter_cfg.c **** static void ClockSetup(void);
 210:Generated_Source\PSoC4/cyfitter_cfg.c **** CY_CFG_SECTION
 211:Generated_Source\PSoC4/cyfitter_cfg.c **** static void ClockSetup(void)
 212:Generated_Source\PSoC4/cyfitter_cfg.c **** {
 132              		.loc 1 212 0
 133              		.cfi_startproc
 134              		@ args = 0, pretend = 0, frame = 0
 135              		@ frame_needed = 0, uses_anonymous_args = 0
 136 0000 70B5     		push	{r4, r5, r6, lr}
 137              		.cfi_def_cfa_offset 16
 138              		.cfi_offset 4, -16
 139              		.cfi_offset 5, -12
 140              		.cfi_offset 6, -8
 141              		.cfi_offset 14, -4
 213:Generated_Source\PSoC4/cyfitter_cfg.c **** 
 214:Generated_Source\PSoC4/cyfitter_cfg.c **** 	/* Set Flash Cycles based on max possible frequency in case a glitch occurs during ClockSetup(). *
 215:Generated_Source\PSoC4/cyfitter_cfg.c **** 	CY_SET_REG32((void CYXDATA *)(CYREG_CPUSS_FLASH_CTL), (0x0012u));
 142              		.loc 1 215 0
 143 0002 1222     		movs	r2, #18
 144 0004 2E4B     		ldr	r3, .L8
 145 0006 1A60     		str	r2, [r3]
 216:Generated_Source\PSoC4/cyfitter_cfg.c **** 
 217:Generated_Source\PSoC4/cyfitter_cfg.c **** 	/* Start the WCO */
 218:Generated_Source\PSoC4/cyfitter_cfg.c **** 	CySysClkWcoStart();
 146              		.loc 1 218 0
 147 0008 FFF7FEFF 		bl	CySysClkWcoStart
 148              	.LVL15:
 219:Generated_Source\PSoC4/cyfitter_cfg.c **** 	CyDelayCycles(12000000u); /* WCO may take up to 500ms to start */
 149              		.loc 1 219 0
 150 000c 2D48     		ldr	r0, .L8+4
 151 000e FFF7FEFF 		bl	CyDelayCycles
 152              	.LVL16:
 220:Generated_Source\PSoC4/cyfitter_cfg.c **** 	(void)CySysClkWcoSetPowerMode(CY_SYS_CLK_WCO_LPM);    /* Switch to the low power mode */
 153              		.loc 1 220 0
 154 0012 0120     		movs	r0, #1
 155 0014 FFF7FEFF 		bl	CySysClkWcoSetPowerMode
 156              	.LVL17:
 221:Generated_Source\PSoC4/cyfitter_cfg.c **** 
 222:Generated_Source\PSoC4/cyfitter_cfg.c **** 	/* Setup and trim IMO based on desired frequency. */
 223:Generated_Source\PSoC4/cyfitter_cfg.c **** 	CySysClkWriteImoFreq(48u);
 157              		.loc 1 223 0
 158 0018 3020     		movs	r0, #48
 159 001a FFF7FEFF 		bl	CySysClkWriteImoFreq
 160              	.LVL18:
 224:Generated_Source\PSoC4/cyfitter_cfg.c **** 	/* CYDEV_CLK_ILO_CONFIG Starting address: CYDEV_CLK_ILO_CONFIG */
 225:Generated_Source\PSoC4/cyfitter_cfg.c **** 	CY_SET_REG32((void *)(CYREG_CLK_ILO_CONFIG), 0x80000006u);
 161              		.loc 1 225 0
 162 001e 2A4A     		ldr	r2, .L8+8
 163 0020 2A4B     		ldr	r3, .L8+12
 164 0022 1A60     		str	r2, [r3]
 226:Generated_Source\PSoC4/cyfitter_cfg.c **** 
 227:Generated_Source\PSoC4/cyfitter_cfg.c **** 	/* CYDEV_WDT_CONFIG Starting address: CYDEV_WDT_CONFIG */
 228:Generated_Source\PSoC4/cyfitter_cfg.c **** 	CY_SET_REG32((void *)(CYREG_WDT_CONFIG), 0x40000000u);
 165              		.loc 1 228 0
ARM GAS  C:\Users\carles\AppData\Local\Temp\ccygwPHG.s 			page 8


 166 0024 2A4C     		ldr	r4, .L8+16
 167 0026 8025     		movs	r5, #128
 168 0028 ED05     		lsls	r5, r5, #23
 169 002a 2560     		str	r5, [r4]
 229:Generated_Source\PSoC4/cyfitter_cfg.c **** 
 230:Generated_Source\PSoC4/cyfitter_cfg.c **** 
 231:Generated_Source\PSoC4/cyfitter_cfg.c **** 	/* Enable fast start mode for XO */
 232:Generated_Source\PSoC4/cyfitter_cfg.c **** 	CY_SET_REG32((void*)CYREG_BLE_BLERD_BB_XO, CY_GET_REG32((void*)CYREG_BLE_BLERD_BB_XO) | (uint32)0x
 170              		.loc 1 232 0
 171 002c 294A     		ldr	r2, .L8+20
 172 002e 1168     		ldr	r1, [r2]
 173 0030 0223     		movs	r3, #2
 174 0032 0B43     		orrs	r3, r1
 175 0034 1360     		str	r3, [r2]
 233:Generated_Source\PSoC4/cyfitter_cfg.c **** 	CY_SET_REG32((void *)(CYREG_BLE_BLERD_BB_XO_CAPTRIM), 0x00003E2Du);
 176              		.loc 1 233 0
 177 0036 284A     		ldr	r2, .L8+24
 178 0038 284B     		ldr	r3, .L8+28
 179 003a 1A60     		str	r2, [r3]
 234:Generated_Source\PSoC4/cyfitter_cfg.c **** 	/*Set XTAL(ECO) divider*/
 235:Generated_Source\PSoC4/cyfitter_cfg.c **** 	CY_SET_REG32((void *)(CYREG_BLE_BLESS_XTAL_CLK_DIV_CONFIG), 0x00000000u);
 180              		.loc 1 235 0
 181 003c 0022     		movs	r2, #0
 182 003e 284B     		ldr	r3, .L8+32
 183 0040 1A60     		str	r2, [r3]
 236:Generated_Source\PSoC4/cyfitter_cfg.c **** 	/* Disable Crystal Stable Interrupt before enabling ECO */
 237:Generated_Source\PSoC4/cyfitter_cfg.c **** 	CY_SET_REG32((void*)CYREG_BLE_BLESS_LL_DSM_CTRL, CY_GET_REG32((void*)CYREG_BLE_BLESS_LL_DSM_CTRL) 
 184              		.loc 1 237 0
 185 0042 284A     		ldr	r2, .L8+36
 186 0044 1368     		ldr	r3, [r2]
 187 0046 0821     		movs	r1, #8
 188 0048 8B43     		bics	r3, r1
 189 004a 1360     		str	r3, [r2]
 238:Generated_Source\PSoC4/cyfitter_cfg.c **** 	/* Start the ECO and do not check status since it is not needed for HFCLK */
 239:Generated_Source\PSoC4/cyfitter_cfg.c **** 	(void)CySysClkEcoStart(2000u);
 190              		.loc 1 239 0
 191 004c FA20     		movs	r0, #250
 192 004e C000     		lsls	r0, r0, #3
 193 0050 FFF7FEFF 		bl	CySysClkEcoStart
 194              	.LVL19:
 240:Generated_Source\PSoC4/cyfitter_cfg.c **** 	CyDelayUs(1500u); /* Wait to stabilize */
 195              		.loc 1 240 0
 196 0054 2448     		ldr	r0, .L8+40
 197 0056 FFF7FEFF 		bl	CyDelayUs
 198              	.LVL20:
 241:Generated_Source\PSoC4/cyfitter_cfg.c **** 
 242:Generated_Source\PSoC4/cyfitter_cfg.c **** 	/* Setup phase aligned clocks */
 243:Generated_Source\PSoC4/cyfitter_cfg.c **** 	CY_SET_REG32((void *)CYREG_PERI_DIV_16_CTL3, 0x0001DF00u);
 199              		.loc 1 243 0
 200 005a 244A     		ldr	r2, .L8+44
 201 005c 244B     		ldr	r3, .L8+48
 202 005e 1A60     		str	r2, [r3]
 244:Generated_Source\PSoC4/cyfitter_cfg.c **** 	CY_SET_REG32((void *)CYREG_PERI_DIV_CMD, 0x8000FF43u);
 203              		.loc 1 244 0
 204 0060 244B     		ldr	r3, .L8+52
 205 0062 2549     		ldr	r1, .L8+56
 206 0064 1960     		str	r1, [r3]
ARM GAS  C:\Users\carles\AppData\Local\Temp\ccygwPHG.s 			page 9


 245:Generated_Source\PSoC4/cyfitter_cfg.c **** 	CY_SET_REG32((void *)CYREG_PERI_DIV_16_CTL2, 0x0001DF00u);
 207              		.loc 1 245 0
 208 0066 2549     		ldr	r1, .L8+60
 209 0068 0A60     		str	r2, [r1]
 246:Generated_Source\PSoC4/cyfitter_cfg.c **** 	CY_SET_REG32((void *)CYREG_PERI_DIV_CMD, 0x8000FF42u);
 210              		.loc 1 246 0
 211 006a 254A     		ldr	r2, .L8+64
 212 006c 1A60     		str	r2, [r3]
 247:Generated_Source\PSoC4/cyfitter_cfg.c **** 	CY_SET_REG32((void *)CYREG_PERI_DIV_16_CTL0, 0x00002F00u);
 213              		.loc 1 247 0
 214 006e BC22     		movs	r2, #188
 215 0070 9201     		lsls	r2, r2, #6
 216 0072 2449     		ldr	r1, .L8+68
 217 0074 0A60     		str	r2, [r1]
 248:Generated_Source\PSoC4/cyfitter_cfg.c **** 	CY_SET_REG32((void *)CYREG_PERI_DIV_CMD, 0x8000FF40u);
 218              		.loc 1 248 0
 219 0076 2449     		ldr	r1, .L8+72
 220 0078 1960     		str	r1, [r3]
 249:Generated_Source\PSoC4/cyfitter_cfg.c **** 	CY_SET_REG32((void *)CYREG_PERI_DIV_16_CTL1, 0x00002F00u);
 221              		.loc 1 249 0
 222 007a 2449     		ldr	r1, .L8+76
 223 007c 0A60     		str	r2, [r1]
 250:Generated_Source\PSoC4/cyfitter_cfg.c **** 	CY_SET_REG32((void *)CYREG_PERI_DIV_CMD, 0x8000FF41u);
 224              		.loc 1 250 0
 225 007e 244A     		ldr	r2, .L8+80
 226 0080 1A60     		str	r2, [r3]
 251:Generated_Source\PSoC4/cyfitter_cfg.c **** 
 252:Generated_Source\PSoC4/cyfitter_cfg.c **** 	/* CYDEV_CLK_IMO_CONFIG Starting address: CYDEV_CLK_IMO_CONFIG */
 253:Generated_Source\PSoC4/cyfitter_cfg.c **** 	CY_SET_REG32((void *)(CYREG_CLK_IMO_CONFIG), 0x82000000u);
 227              		.loc 1 253 0
 228 0082 8222     		movs	r2, #130
 229 0084 1206     		lsls	r2, r2, #24
 230 0086 234B     		ldr	r3, .L8+84
 231 0088 1A60     		str	r2, [r3]
 254:Generated_Source\PSoC4/cyfitter_cfg.c **** 
 255:Generated_Source\PSoC4/cyfitter_cfg.c **** 	/* CYDEV_CLK_SELECT Starting address: CYDEV_CLK_SELECT */
 256:Generated_Source\PSoC4/cyfitter_cfg.c **** 	CY_SET_REG32((void *)(CYREG_CLK_SELECT), 0x00040000u);
 232              		.loc 1 256 0
 233 008a 8022     		movs	r2, #128
 234 008c D202     		lsls	r2, r2, #11
 235 008e 224B     		ldr	r3, .L8+88
 236 0090 1A60     		str	r2, [r3]
 257:Generated_Source\PSoC4/cyfitter_cfg.c **** 
 258:Generated_Source\PSoC4/cyfitter_cfg.c **** 	/* CYDEV_PERI_PCLK_CTL10 Starting address: CYDEV_PERI_PCLK_CTL10 */
 259:Generated_Source\PSoC4/cyfitter_cfg.c **** 	CY_SET_REG32((void *)(CYREG_PERI_PCLK_CTL10), 0x00000043u);
 237              		.loc 1 259 0
 238 0092 4322     		movs	r2, #67
 239 0094 214B     		ldr	r3, .L8+92
 240 0096 1A60     		str	r2, [r3]
 260:Generated_Source\PSoC4/cyfitter_cfg.c **** 
 261:Generated_Source\PSoC4/cyfitter_cfg.c **** 	/* CYDEV_PERI_PCLK_CTL9 Starting address: CYDEV_PERI_PCLK_CTL9 */
 262:Generated_Source\PSoC4/cyfitter_cfg.c **** 	CY_SET_REG32((void *)(CYREG_PERI_PCLK_CTL9), 0x00000042u);
 241              		.loc 1 262 0
 242 0098 4223     		movs	r3, #66
 243 009a 214A     		ldr	r2, .L8+96
 244 009c 1360     		str	r3, [r2]
 263:Generated_Source\PSoC4/cyfitter_cfg.c **** 
ARM GAS  C:\Users\carles\AppData\Local\Temp\ccygwPHG.s 			page 10


 264:Generated_Source\PSoC4/cyfitter_cfg.c **** 	/* CYDEV_PERI_PCLK_CTL8 Starting address: CYDEV_PERI_PCLK_CTL8 */
 265:Generated_Source\PSoC4/cyfitter_cfg.c **** 	CY_SET_REG32((void *)(CYREG_PERI_PCLK_CTL8), 0x00000042u);
 245              		.loc 1 265 0
 246 009e 214A     		ldr	r2, .L8+100
 247 00a0 1360     		str	r3, [r2]
 266:Generated_Source\PSoC4/cyfitter_cfg.c **** 
 267:Generated_Source\PSoC4/cyfitter_cfg.c **** 	/* CYDEV_PERI_PCLK_CTL7 Starting address: CYDEV_PERI_PCLK_CTL7 */
 268:Generated_Source\PSoC4/cyfitter_cfg.c **** 	CY_SET_REG32((void *)(CYREG_PERI_PCLK_CTL7), 0x00000040u);
 248              		.loc 1 268 0
 249 00a2 4022     		movs	r2, #64
 250 00a4 204B     		ldr	r3, .L8+104
 251 00a6 1A60     		str	r2, [r3]
 269:Generated_Source\PSoC4/cyfitter_cfg.c **** 
 270:Generated_Source\PSoC4/cyfitter_cfg.c **** 	/* CYDEV_PERI_PCLK_CTL6 Starting address: CYDEV_PERI_PCLK_CTL6 */
 271:Generated_Source\PSoC4/cyfitter_cfg.c **** 	CY_SET_REG32((void *)(CYREG_PERI_PCLK_CTL6), 0x00000041u);
 252              		.loc 1 271 0
 253 00a8 0132     		adds	r2, r2, #1
 254 00aa 204B     		ldr	r3, .L8+108
 255 00ac 1A60     		str	r2, [r3]
 272:Generated_Source\PSoC4/cyfitter_cfg.c **** 
 273:Generated_Source\PSoC4/cyfitter_cfg.c **** 	(void)CyIntSetVector(8u, &CySysWdtIsr);
 256              		.loc 1 273 0
 257 00ae 2049     		ldr	r1, .L8+112
 258 00b0 0820     		movs	r0, #8
 259 00b2 FFF7FEFF 		bl	CyIntSetVector
 260              	.LVL21:
 274:Generated_Source\PSoC4/cyfitter_cfg.c **** 	CyIntEnable(8u);
 261              		.loc 1 274 0
 262 00b6 0820     		movs	r0, #8
 263 00b8 FFF7FEFF 		bl	CyIntEnable
 264              	.LVL22:
 275:Generated_Source\PSoC4/cyfitter_cfg.c **** 	CY_SET_REG32((void *)(CYREG_WDT_CONFIG), 0x40000000u);
 265              		.loc 1 275 0
 266 00bc 2560     		str	r5, [r4]
 276:Generated_Source\PSoC4/cyfitter_cfg.c **** }
 267              		.loc 1 276 0
 268              		@ sp needed
 269 00be 70BD     		pop	{r4, r5, r6, pc}
 270              	.L9:
 271              		.align	2
 272              	.L8:
 273 00c0 30001040 		.word	1074790448
 274 00c4 001BB700 		.word	12000000
 275 00c8 06000080 		.word	-2147483642
 276 00cc 04010B40 		.word	1074462980
 277 00d0 0C020B40 		.word	1074463244
 278 00d4 78002E40 		.word	1076756600
 279 00d8 2D3E0000 		.word	15917
 280 00dc 7C002E40 		.word	1076756604
 281 00e0 64F02E40 		.word	1076818020
 282 00e4 6CF02E40 		.word	1076818028
 283 00e8 DC050000 		.word	1500
 284 00ec 00DF0100 		.word	122624
 285 00f0 0C030140 		.word	1073808140
 286 00f4 00000140 		.word	1073807360
 287 00f8 43FF0080 		.word	-2147418301
 288 00fc 08030140 		.word	1073808136
ARM GAS  C:\Users\carles\AppData\Local\Temp\ccygwPHG.s 			page 11


 289 0100 42FF0080 		.word	-2147418302
 290 0104 00030140 		.word	1073808128
 291 0108 40FF0080 		.word	-2147418304
 292 010c 04030140 		.word	1073808132
 293 0110 41FF0080 		.word	-2147418303
 294 0114 08010B40 		.word	1074462984
 295 0118 00010B40 		.word	1074462976
 296 011c 28010140 		.word	1073807656
 297 0120 24010140 		.word	1073807652
 298 0124 20010140 		.word	1073807648
 299 0128 1C010140 		.word	1073807644
 300 012c 18010140 		.word	1073807640
 301 0130 00000000 		.word	CySysWdtIsr
 302              		.cfi_endproc
 303              	.LFE6:
 304              		.size	ClockSetup, .-ClockSetup
 305              		.section	.text.SetAnalogRoutingPumps,"ax",%progbits
 306              		.align	2
 307              		.global	SetAnalogRoutingPumps
 308              		.code	16
 309              		.thumb_func
 310              		.type	SetAnalogRoutingPumps, %function
 311              	SetAnalogRoutingPumps:
 312              	.LFB8:
 277:Generated_Source\PSoC4/cyfitter_cfg.c **** 
 278:Generated_Source\PSoC4/cyfitter_cfg.c **** 
 279:Generated_Source\PSoC4/cyfitter_cfg.c **** /* Analog API Functions */
 280:Generated_Source\PSoC4/cyfitter_cfg.c **** 
 281:Generated_Source\PSoC4/cyfitter_cfg.c **** 
 282:Generated_Source\PSoC4/cyfitter_cfg.c **** /*******************************************************************************
 283:Generated_Source\PSoC4/cyfitter_cfg.c **** * Function Name: AnalogSetDefault
 284:Generated_Source\PSoC4/cyfitter_cfg.c **** ********************************************************************************
 285:Generated_Source\PSoC4/cyfitter_cfg.c **** *
 286:Generated_Source\PSoC4/cyfitter_cfg.c **** * Summary:
 287:Generated_Source\PSoC4/cyfitter_cfg.c **** *  Sets up the analog portions of the chip to default values based on chip
 288:Generated_Source\PSoC4/cyfitter_cfg.c **** *  configuration options from the project.
 289:Generated_Source\PSoC4/cyfitter_cfg.c **** *
 290:Generated_Source\PSoC4/cyfitter_cfg.c **** * Parameters:
 291:Generated_Source\PSoC4/cyfitter_cfg.c **** *  void
 292:Generated_Source\PSoC4/cyfitter_cfg.c **** *
 293:Generated_Source\PSoC4/cyfitter_cfg.c **** * Return:
 294:Generated_Source\PSoC4/cyfitter_cfg.c **** *  void
 295:Generated_Source\PSoC4/cyfitter_cfg.c **** *
 296:Generated_Source\PSoC4/cyfitter_cfg.c **** *******************************************************************************/
 297:Generated_Source\PSoC4/cyfitter_cfg.c **** static void AnalogSetDefault(void);
 298:Generated_Source\PSoC4/cyfitter_cfg.c **** static void AnalogSetDefault(void)
 299:Generated_Source\PSoC4/cyfitter_cfg.c **** {
 300:Generated_Source\PSoC4/cyfitter_cfg.c **** 	CY_SET_XTND_REG32((void CYFAR *)CYREG_CTBM0_DFT_CTRL, 0x00000003u);
 301:Generated_Source\PSoC4/cyfitter_cfg.c **** 	CY_SET_XTND_REG32((void CYFAR *)CYREG_CTBM1_DFT_CTRL, 0x00000003u);
 302:Generated_Source\PSoC4/cyfitter_cfg.c **** 	CY_SET_XTND_REG32((void CYFAR *)CYREG_SAR_CTRL, 0x80000000u);
 303:Generated_Source\PSoC4/cyfitter_cfg.c **** 	CY_SET_XTND_REG32((void CYFAR *)CYREG_SAR_MUX_SWITCH0, 0x00000001u);
 304:Generated_Source\PSoC4/cyfitter_cfg.c **** 	CY_SET_XTND_REG32((void CYFAR *)CYREG_PASS_DSAB_DSAB_CTRL, 0x00000000u);
 305:Generated_Source\PSoC4/cyfitter_cfg.c **** 	SetAnalogRoutingPumps(1);
 306:Generated_Source\PSoC4/cyfitter_cfg.c **** }
 307:Generated_Source\PSoC4/cyfitter_cfg.c **** 
 308:Generated_Source\PSoC4/cyfitter_cfg.c **** 
 309:Generated_Source\PSoC4/cyfitter_cfg.c **** /*******************************************************************************
ARM GAS  C:\Users\carles\AppData\Local\Temp\ccygwPHG.s 			page 12


 310:Generated_Source\PSoC4/cyfitter_cfg.c **** * Function Name: SetAnalogRoutingPumps
 311:Generated_Source\PSoC4/cyfitter_cfg.c **** ********************************************************************************
 312:Generated_Source\PSoC4/cyfitter_cfg.c **** *
 313:Generated_Source\PSoC4/cyfitter_cfg.c **** * Summary:
 314:Generated_Source\PSoC4/cyfitter_cfg.c **** * Enables or disables the analog pumps feeding analog routing switches.
 315:Generated_Source\PSoC4/cyfitter_cfg.c **** * Intended to be called at startup, based on the Vdda system configuration;
 316:Generated_Source\PSoC4/cyfitter_cfg.c **** * may be called during operation when the user informs us that the Vdda voltage crossed the pump th
 317:Generated_Source\PSoC4/cyfitter_cfg.c **** *
 318:Generated_Source\PSoC4/cyfitter_cfg.c **** * Parameters:
 319:Generated_Source\PSoC4/cyfitter_cfg.c **** *  enabled - 1 to enable the pumps, 0 to disable the pumps
 320:Generated_Source\PSoC4/cyfitter_cfg.c **** *
 321:Generated_Source\PSoC4/cyfitter_cfg.c **** * Return:
 322:Generated_Source\PSoC4/cyfitter_cfg.c **** *  void
 323:Generated_Source\PSoC4/cyfitter_cfg.c **** *
 324:Generated_Source\PSoC4/cyfitter_cfg.c **** *******************************************************************************/
 325:Generated_Source\PSoC4/cyfitter_cfg.c **** void SetAnalogRoutingPumps(uint8 enabled)
 326:Generated_Source\PSoC4/cyfitter_cfg.c **** {
 313              		.loc 1 326 0
 314              		.cfi_startproc
 315              		@ args = 0, pretend = 0, frame = 0
 316              		@ frame_needed = 0, uses_anonymous_args = 0
 317              		@ link register save eliminated.
 318              	.LVL23:
 327:Generated_Source\PSoC4/cyfitter_cfg.c **** 	uint32 regValue = CY_GET_XTND_REG32((void *)(CYREG_SAR_PUMP_CTRL));
 319              		.loc 1 327 0
 320 0000 064B     		ldr	r3, .L13
 321 0002 1B68     		ldr	r3, [r3]
 322              	.LVL24:
 328:Generated_Source\PSoC4/cyfitter_cfg.c **** 	if (enabled != 0u)
 323              		.loc 1 328 0
 324 0004 0028     		cmp	r0, #0
 325 0006 03D0     		beq	.L11
 329:Generated_Source\PSoC4/cyfitter_cfg.c **** 	{
 330:Generated_Source\PSoC4/cyfitter_cfg.c **** 		regValue |= 0x80000000u;
 326              		.loc 1 330 0
 327 0008 8022     		movs	r2, #128
 328 000a 1206     		lsls	r2, r2, #24
 329 000c 1343     		orrs	r3, r2
 330              	.LVL25:
 331 000e 01E0     		b	.L12
 332              	.L11:
 331:Generated_Source\PSoC4/cyfitter_cfg.c **** 	}
 332:Generated_Source\PSoC4/cyfitter_cfg.c **** 	else
 333:Generated_Source\PSoC4/cyfitter_cfg.c **** 	{
 334:Generated_Source\PSoC4/cyfitter_cfg.c **** 		regValue &= ~0x80000000u;
 333              		.loc 1 334 0
 334 0010 5B00     		lsls	r3, r3, #1
 335              	.LVL26:
 336 0012 5B08     		lsrs	r3, r3, #1
 337              	.LVL27:
 338              	.L12:
 335:Generated_Source\PSoC4/cyfitter_cfg.c **** 	}
 336:Generated_Source\PSoC4/cyfitter_cfg.c **** 	CY_SET_XTND_REG32((void *)(CYREG_SAR_PUMP_CTRL), regValue);
 339              		.loc 1 336 0
 340 0014 014A     		ldr	r2, .L13
 341 0016 1360     		str	r3, [r2]
 337:Generated_Source\PSoC4/cyfitter_cfg.c **** }
ARM GAS  C:\Users\carles\AppData\Local\Temp\ccygwPHG.s 			page 13


 342              		.loc 1 337 0
 343              		@ sp needed
 344 0018 7047     		bx	lr
 345              	.L14:
 346 001a C046     		.align	2
 347              	.L13:
 348 001c 80033A40 		.word	1077543808
 349              		.cfi_endproc
 350              	.LFE8:
 351              		.size	SetAnalogRoutingPumps, .-SetAnalogRoutingPumps
 352              		.section	.text.AnalogSetDefault,"ax",%progbits
 353              		.align	2
 354              		.code	16
 355              		.thumb_func
 356              		.type	AnalogSetDefault, %function
 357              	AnalogSetDefault:
 358              	.LFB7:
 299:Generated_Source\PSoC4/cyfitter_cfg.c **** 	CY_SET_XTND_REG32((void CYFAR *)CYREG_CTBM0_DFT_CTRL, 0x00000003u);
 359              		.loc 1 299 0
 360              		.cfi_startproc
 361              		@ args = 0, pretend = 0, frame = 0
 362              		@ frame_needed = 0, uses_anonymous_args = 0
 363 0000 10B5     		push	{r4, lr}
 364              		.cfi_def_cfa_offset 8
 365              		.cfi_offset 4, -8
 366              		.cfi_offset 14, -4
 300:Generated_Source\PSoC4/cyfitter_cfg.c **** 	CY_SET_XTND_REG32((void CYFAR *)CYREG_CTBM1_DFT_CTRL, 0x00000003u);
 367              		.loc 1 300 0
 368 0002 0323     		movs	r3, #3
 369 0004 084A     		ldr	r2, .L16
 370 0006 1360     		str	r3, [r2]
 301:Generated_Source\PSoC4/cyfitter_cfg.c **** 	CY_SET_XTND_REG32((void CYFAR *)CYREG_SAR_CTRL, 0x80000000u);
 371              		.loc 1 301 0
 372 0008 084A     		ldr	r2, .L16+4
 373 000a 1360     		str	r3, [r2]
 302:Generated_Source\PSoC4/cyfitter_cfg.c **** 	CY_SET_XTND_REG32((void CYFAR *)CYREG_SAR_MUX_SWITCH0, 0x00000001u);
 374              		.loc 1 302 0
 375 000c 8022     		movs	r2, #128
 376 000e 1206     		lsls	r2, r2, #24
 377 0010 074B     		ldr	r3, .L16+8
 378 0012 1A60     		str	r2, [r3]
 303:Generated_Source\PSoC4/cyfitter_cfg.c **** 	CY_SET_XTND_REG32((void CYFAR *)CYREG_PASS_DSAB_DSAB_CTRL, 0x00000000u);
 379              		.loc 1 303 0
 380 0014 0122     		movs	r2, #1
 381 0016 074B     		ldr	r3, .L16+12
 382 0018 1A60     		str	r2, [r3]
 304:Generated_Source\PSoC4/cyfitter_cfg.c **** 	SetAnalogRoutingPumps(1);
 383              		.loc 1 304 0
 384 001a 0022     		movs	r2, #0
 385 001c 064B     		ldr	r3, .L16+16
 386 001e 1A60     		str	r2, [r3]
 305:Generated_Source\PSoC4/cyfitter_cfg.c **** }
 387              		.loc 1 305 0
 388 0020 0120     		movs	r0, #1
 389 0022 FFF7FEFF 		bl	SetAnalogRoutingPumps
 390              	.LVL28:
 306:Generated_Source\PSoC4/cyfitter_cfg.c **** 
ARM GAS  C:\Users\carles\AppData\Local\Temp\ccygwPHG.s 			page 14


 391              		.loc 1 306 0
 392              		@ sp needed
 393 0026 10BD     		pop	{r4, pc}
 394              	.L17:
 395              		.align	2
 396              	.L16:
 397 0028 30003040 		.word	1076887600
 398 002c 30003140 		.word	1076953136
 399 0030 00003A40 		.word	1077542912
 400 0034 00033A40 		.word	1077543680
 401 0038 000E3F40 		.word	1077874176
 402              		.cfi_endproc
 403              	.LFE7:
 404              		.size	AnalogSetDefault, .-AnalogSetDefault
 405              		.section	.psocinit
 406              		.align	2
 407              		.global	cyfitter_cfg
 408              		.code	16
 409              		.thumb_func
 410              		.type	cyfitter_cfg, %function
 411              	cyfitter_cfg:
 412              	.LFB9:
 338:Generated_Source\PSoC4/cyfitter_cfg.c **** 
 339:Generated_Source\PSoC4/cyfitter_cfg.c **** 
 340:Generated_Source\PSoC4/cyfitter_cfg.c **** 
 341:Generated_Source\PSoC4/cyfitter_cfg.c **** 
 342:Generated_Source\PSoC4/cyfitter_cfg.c **** /*******************************************************************************
 343:Generated_Source\PSoC4/cyfitter_cfg.c **** * Function Name: cyfitter_cfg
 344:Generated_Source\PSoC4/cyfitter_cfg.c **** ********************************************************************************
 345:Generated_Source\PSoC4/cyfitter_cfg.c **** * Summary:
 346:Generated_Source\PSoC4/cyfitter_cfg.c **** *  This function is called by the start-up code for the selected device. It
 347:Generated_Source\PSoC4/cyfitter_cfg.c **** *  performs all of the necessary device configuration based on the design
 348:Generated_Source\PSoC4/cyfitter_cfg.c **** *  settings.  This includes settings from the Design Wide Resources (DWR) such
 349:Generated_Source\PSoC4/cyfitter_cfg.c **** *  as Clocks and Pins as well as any component configuration that is necessary.
 350:Generated_Source\PSoC4/cyfitter_cfg.c **** *
 351:Generated_Source\PSoC4/cyfitter_cfg.c **** * Parameters:
 352:Generated_Source\PSoC4/cyfitter_cfg.c **** *   void
 353:Generated_Source\PSoC4/cyfitter_cfg.c **** *
 354:Generated_Source\PSoC4/cyfitter_cfg.c **** * Return:
 355:Generated_Source\PSoC4/cyfitter_cfg.c **** *   void
 356:Generated_Source\PSoC4/cyfitter_cfg.c **** *
 357:Generated_Source\PSoC4/cyfitter_cfg.c **** *******************************************************************************/
 358:Generated_Source\PSoC4/cyfitter_cfg.c **** CY_CFG_SECTION
 359:Generated_Source\PSoC4/cyfitter_cfg.c **** void cyfitter_cfg(void)
 360:Generated_Source\PSoC4/cyfitter_cfg.c **** {
 413              		.loc 1 360 0
 414              		.cfi_startproc
 415              		@ args = 0, pretend = 0, frame = 0
 416              		@ frame_needed = 0, uses_anonymous_args = 0
 417 0134 10B5     		push	{r4, lr}
 418              		.cfi_def_cfa_offset 8
 419              		.cfi_offset 4, -8
 420              		.cfi_offset 14, -4
 361:Generated_Source\PSoC4/cyfitter_cfg.c **** 	/* Disable interrupts by default. Let user enable if/when they want. */
 362:Generated_Source\PSoC4/cyfitter_cfg.c **** 	CyGlobalIntDisable;
 421              		.loc 1 362 0
 422              		.syntax divided
ARM GAS  C:\Users\carles\AppData\Local\Temp\ccygwPHG.s 			page 15


 423              	@ 362 "Generated_Source\PSoC4\cyfitter_cfg.c" 1
 424 0136 72B6     		CPSID   i
 425              	@ 0 "" 2
 363:Generated_Source\PSoC4/cyfitter_cfg.c **** 
 364:Generated_Source\PSoC4/cyfitter_cfg.c **** 	CY_SET_REG32((void *)(CYREG_BLE_BLESS_LL_DSM_CTRL), 0x00000000u);
 426              		.loc 1 364 0
 427              		.thumb
 428              		.syntax unified
 429 0138 0022     		movs	r2, #0
 430 013a 304B     		ldr	r3, .L21
 431 013c 1A60     		str	r2, [r3]
 432              	.LVL29:
 433              	.LBB3:
 365:Generated_Source\PSoC4/cyfitter_cfg.c **** 
 366:Generated_Source\PSoC4/cyfitter_cfg.c **** 	{
 367:Generated_Source\PSoC4/cyfitter_cfg.c **** 		static const uint32 CYCODE cy_cfg_addr_table[] = {
 368:Generated_Source\PSoC4/cyfitter_cfg.c **** 			0x400F3101u, /* Base address: 0x400F3100 Count: 1 */
 369:Generated_Source\PSoC4/cyfitter_cfg.c **** 			0x400F3303u, /* Base address: 0x400F3300 Count: 3 */
 370:Generated_Source\PSoC4/cyfitter_cfg.c **** 			0x400F4005u, /* Base address: 0x400F4000 Count: 5 */
 371:Generated_Source\PSoC4/cyfitter_cfg.c **** 			0x400F4109u, /* Base address: 0x400F4100 Count: 9 */
 372:Generated_Source\PSoC4/cyfitter_cfg.c **** 			0x400F4206u, /* Base address: 0x400F4200 Count: 6 */
 373:Generated_Source\PSoC4/cyfitter_cfg.c **** 			0x400F4305u, /* Base address: 0x400F4300 Count: 5 */
 374:Generated_Source\PSoC4/cyfitter_cfg.c **** 		};
 375:Generated_Source\PSoC4/cyfitter_cfg.c **** 
 376:Generated_Source\PSoC4/cyfitter_cfg.c **** 		static const cy_cfg_addrvalue_t CYCODE cy_cfg_data_table[] = {
 377:Generated_Source\PSoC4/cyfitter_cfg.c **** 			{0xE2u, 0x02u},
 378:Generated_Source\PSoC4/cyfitter_cfg.c **** 			{0xE0u, 0x01u},
 379:Generated_Source\PSoC4/cyfitter_cfg.c **** 			{0xE2u, 0x04u},
 380:Generated_Source\PSoC4/cyfitter_cfg.c **** 			{0xEEu, 0x02u},
 381:Generated_Source\PSoC4/cyfitter_cfg.c **** 			{0x51u, 0x10u},
 382:Generated_Source\PSoC4/cyfitter_cfg.c **** 			{0x57u, 0x08u},
 383:Generated_Source\PSoC4/cyfitter_cfg.c **** 			{0x85u, 0x10u},
 384:Generated_Source\PSoC4/cyfitter_cfg.c **** 			{0xD4u, 0x60u},
 385:Generated_Source\PSoC4/cyfitter_cfg.c **** 			{0xE2u, 0x40u},
 386:Generated_Source\PSoC4/cyfitter_cfg.c **** 			{0x07u, 0x04u},
 387:Generated_Source\PSoC4/cyfitter_cfg.c **** 			{0x53u, 0x02u},
 388:Generated_Source\PSoC4/cyfitter_cfg.c **** 			{0x83u, 0x06u},
 389:Generated_Source\PSoC4/cyfitter_cfg.c **** 			{0xAFu, 0x08u},
 390:Generated_Source\PSoC4/cyfitter_cfg.c **** 			{0xC0u, 0x80u},
 391:Generated_Source\PSoC4/cyfitter_cfg.c **** 			{0xD4u, 0x80u},
 392:Generated_Source\PSoC4/cyfitter_cfg.c **** 			{0xE0u, 0x80u},
 393:Generated_Source\PSoC4/cyfitter_cfg.c **** 			{0xE2u, 0x20u},
 394:Generated_Source\PSoC4/cyfitter_cfg.c **** 			{0xEEu, 0x40u},
 395:Generated_Source\PSoC4/cyfitter_cfg.c **** 			{0x13u, 0x40u},
 396:Generated_Source\PSoC4/cyfitter_cfg.c **** 			{0x17u, 0x11u},
 397:Generated_Source\PSoC4/cyfitter_cfg.c **** 			{0x3Cu, 0x01u},
 398:Generated_Source\PSoC4/cyfitter_cfg.c **** 			{0x87u, 0x01u},
 399:Generated_Source\PSoC4/cyfitter_cfg.c **** 			{0xC4u, 0x07u},
 400:Generated_Source\PSoC4/cyfitter_cfg.c **** 			{0xCEu, 0x01u},
 401:Generated_Source\PSoC4/cyfitter_cfg.c **** 			{0x80u, 0x01u},
 402:Generated_Source\PSoC4/cyfitter_cfg.c **** 			{0x83u, 0x10u},
 403:Generated_Source\PSoC4/cyfitter_cfg.c **** 			{0x94u, 0x01u},
 404:Generated_Source\PSoC4/cyfitter_cfg.c **** 			{0x9Bu, 0x10u},
 405:Generated_Source\PSoC4/cyfitter_cfg.c **** 			{0xAFu, 0x40u},
 406:Generated_Source\PSoC4/cyfitter_cfg.c **** 		};
 407:Generated_Source\PSoC4/cyfitter_cfg.c **** 
 408:Generated_Source\PSoC4/cyfitter_cfg.c **** 
ARM GAS  C:\Users\carles\AppData\Local\Temp\ccygwPHG.s 			page 16


 409:Generated_Source\PSoC4/cyfitter_cfg.c **** 
 410:Generated_Source\PSoC4/cyfitter_cfg.c **** 		CYPACKED typedef struct {
 411:Generated_Source\PSoC4/cyfitter_cfg.c **** 			void CYFAR *address;
 412:Generated_Source\PSoC4/cyfitter_cfg.c **** 			uint16 size;
 413:Generated_Source\PSoC4/cyfitter_cfg.c **** 		} CYPACKED_ATTR cfg_memset_t;
 414:Generated_Source\PSoC4/cyfitter_cfg.c **** 
 415:Generated_Source\PSoC4/cyfitter_cfg.c **** 		static const cfg_memset_t CYCODE cfg_memset_list[] = {
 416:Generated_Source\PSoC4/cyfitter_cfg.c **** 			/* address, size */
 417:Generated_Source\PSoC4/cyfitter_cfg.c **** 			{(void CYFAR *)(CYDEV_UDB_P0_U0_BASE), 1024u},
 418:Generated_Source\PSoC4/cyfitter_cfg.c **** 			{(void CYFAR *)(CYDEV_UDB_DSI0_BASE), 1024u},
 419:Generated_Source\PSoC4/cyfitter_cfg.c **** 		};
 420:Generated_Source\PSoC4/cyfitter_cfg.c **** 
 421:Generated_Source\PSoC4/cyfitter_cfg.c **** 		uint8 CYDATA i;
 422:Generated_Source\PSoC4/cyfitter_cfg.c **** 
 423:Generated_Source\PSoC4/cyfitter_cfg.c **** 		/* Zero out critical memory blocks before beginning configuration */
 424:Generated_Source\PSoC4/cyfitter_cfg.c **** 		for (i = 0u; i < (sizeof(cfg_memset_list)/sizeof(cfg_memset_list[0])); i++)
 434              		.loc 1 424 0
 435 013e 0024     		movs	r4, #0
 436 0140 0FE0     		b	.L19
 437              	.LVL30:
 438              	.L20:
 439              	.LBB4:
 425:Generated_Source\PSoC4/cyfitter_cfg.c **** 		{
 426:Generated_Source\PSoC4/cyfitter_cfg.c **** 			const cfg_memset_t CYCODE * CYDATA ms = &cfg_memset_list[i];
 427:Generated_Source\PSoC4/cyfitter_cfg.c **** 			CYMEMZERO(ms->address, (size_t)(uint32)(ms->size));
 440              		.loc 1 427 0 discriminator 3
 441 0142 2F48     		ldr	r0, .L21+4
 442 0144 6200     		lsls	r2, r4, #1
 443 0146 1319     		adds	r3, r2, r4
 444 0148 5900     		lsls	r1, r3, #1
 445 014a 0B00     		movs	r3, r1
 446 014c 4118     		adds	r1, r0, r1
 447 014e 8988     		ldrh	r1, [r1, #4]
 448 0150 1A5A     		ldrh	r2, [r3, r0]
 449 0152 C318     		adds	r3, r0, r3
 450 0154 5888     		ldrh	r0, [r3, #2]
 451 0156 0004     		lsls	r0, r0, #16
 452 0158 1043     		orrs	r0, r2
 453 015a FFF7FEFF 		bl	CYMEMZERO
 454              	.LVL31:
 455              	.LBE4:
 424:Generated_Source\PSoC4/cyfitter_cfg.c **** 		{
 456              		.loc 1 424 0 discriminator 3
 457 015e 0134     		adds	r4, r4, #1
 458              	.LVL32:
 459 0160 E4B2     		uxtb	r4, r4
 460              	.LVL33:
 461              	.L19:
 424:Generated_Source\PSoC4/cyfitter_cfg.c **** 		{
 462              		.loc 1 424 0 is_stmt 0 discriminator 1
 463 0162 012C     		cmp	r4, #1
 464 0164 EDD9     		bls	.L20
 428:Generated_Source\PSoC4/cyfitter_cfg.c **** 		}
 429:Generated_Source\PSoC4/cyfitter_cfg.c **** 
 430:Generated_Source\PSoC4/cyfitter_cfg.c **** 		cfg_write_bytes32(cy_cfg_addr_table, cy_cfg_data_table);
 465              		.loc 1 430 0 is_stmt 1
 466 0166 2648     		ldr	r0, .L21+4
ARM GAS  C:\Users\carles\AppData\Local\Temp\ccygwPHG.s 			page 17


 467 0168 0100     		movs	r1, r0
 468 016a 0C31     		adds	r1, r1, #12
 469 016c 4830     		adds	r0, r0, #72
 470 016e FFF7FEFF 		bl	cfg_write_bytes32
 471              	.LVL34:
 431:Generated_Source\PSoC4/cyfitter_cfg.c **** 
 432:Generated_Source\PSoC4/cyfitter_cfg.c **** 		/* HSIOM Starting address: CYDEV_HSIOM_BASE */
 433:Generated_Source\PSoC4/cyfitter_cfg.c **** 		CY_SET_REG32((void *)(CYDEV_HSIOM_BASE), 0xEE003003u);
 472              		.loc 1 433 0
 473 0172 244A     		ldr	r2, .L21+8
 474 0174 244B     		ldr	r3, .L21+12
 475 0176 1A60     		str	r2, [r3]
 434:Generated_Source\PSoC4/cyfitter_cfg.c **** 		CY_SET_REG32((void *)(CYREG_HSIOM_PORT_SEL1), 0x00000300u);
 476              		.loc 1 434 0
 477 0178 C022     		movs	r2, #192
 478 017a 9200     		lsls	r2, r2, #2
 479 017c 234B     		ldr	r3, .L21+16
 480 017e 1A60     		str	r2, [r3]
 435:Generated_Source\PSoC4/cyfitter_cfg.c **** 
 436:Generated_Source\PSoC4/cyfitter_cfg.c **** 		/* UDB_PA_0 Starting address: CYDEV_UDB_PA0_BASE */
 437:Generated_Source\PSoC4/cyfitter_cfg.c **** 		CY_SET_REG32((void *)(CYDEV_UDB_PA0_BASE), 0x00990000u);
 481              		.loc 1 437 0
 482 0180 9923     		movs	r3, #153
 483 0182 1B04     		lsls	r3, r3, #16
 484 0184 224A     		ldr	r2, .L21+20
 485 0186 1360     		str	r3, [r2]
 438:Generated_Source\PSoC4/cyfitter_cfg.c **** 		CY_SET_REG32((void *)(CYREG_UDB_PA0_CFG8), 0x00290000u);
 486              		.loc 1 438 0
 487 0188 A421     		movs	r1, #164
 488 018a 8903     		lsls	r1, r1, #14
 489 018c 214A     		ldr	r2, .L21+24
 490 018e 1160     		str	r1, [r2]
 439:Generated_Source\PSoC4/cyfitter_cfg.c **** 
 440:Generated_Source\PSoC4/cyfitter_cfg.c **** 		/* UDB_PA_1 Starting address: CYDEV_UDB_PA1_BASE */
 441:Generated_Source\PSoC4/cyfitter_cfg.c **** 		CY_SET_REG32((void *)(CYDEV_UDB_PA1_BASE), 0x00990000u);
 491              		.loc 1 441 0
 492 0190 214A     		ldr	r2, .L21+28
 493 0192 1360     		str	r3, [r2]
 442:Generated_Source\PSoC4/cyfitter_cfg.c **** 		CY_SET_REG32((void *)(CYREG_UDB_PA1_CFG8), 0x00200000u);
 494              		.loc 1 442 0
 495 0194 8021     		movs	r1, #128
 496 0196 8903     		lsls	r1, r1, #14
 497 0198 204A     		ldr	r2, .L21+32
 498 019a 1160     		str	r1, [r2]
 443:Generated_Source\PSoC4/cyfitter_cfg.c **** 
 444:Generated_Source\PSoC4/cyfitter_cfg.c **** 		/* UDB_PA_2 Starting address: CYDEV_UDB_PA2_BASE */
 445:Generated_Source\PSoC4/cyfitter_cfg.c **** 		CY_SET_REG32((void *)(CYDEV_UDB_PA2_BASE), 0x00990000u);
 499              		.loc 1 445 0
 500 019c 204A     		ldr	r2, .L21+36
 501 019e 1360     		str	r3, [r2]
 446:Generated_Source\PSoC4/cyfitter_cfg.c **** 
 447:Generated_Source\PSoC4/cyfitter_cfg.c **** 		/* UDB_PA_3 Starting address: CYDEV_UDB_PA3_BASE */
 448:Generated_Source\PSoC4/cyfitter_cfg.c **** 		CY_SET_REG32((void *)(CYDEV_UDB_PA3_BASE), 0x00990000u);
 502              		.loc 1 448 0
 503 01a0 204A     		ldr	r2, .L21+40
 504 01a2 1360     		str	r3, [r2]
 449:Generated_Source\PSoC4/cyfitter_cfg.c **** 
ARM GAS  C:\Users\carles\AppData\Local\Temp\ccygwPHG.s 			page 18


 450:Generated_Source\PSoC4/cyfitter_cfg.c **** 		/* TCPWM_CNT0 Starting address: CYDEV_TCPWM_CNT0_TR_CTRL0 */
 451:Generated_Source\PSoC4/cyfitter_cfg.c **** 		CY_SET_REG32((void *)(CYREG_TCPWM_CNT0_TR_CTRL0), 0x00055515u);
 505              		.loc 1 451 0
 506 01a4 204A     		ldr	r2, .L21+44
 507 01a6 214B     		ldr	r3, .L21+48
 508 01a8 1A60     		str	r2, [r3]
 452:Generated_Source\PSoC4/cyfitter_cfg.c **** 
 453:Generated_Source\PSoC4/cyfitter_cfg.c **** 		/* Enable digital routing */
 454:Generated_Source\PSoC4/cyfitter_cfg.c **** 		CY_SET_XTND_REG8((void *)CYREG_UDB_UDBIF_BANK_CTL, (uint8)(CY_GET_XTND_REG8((void *)CYREG_UDB_UDB
 509              		.loc 1 454 0
 510 01aa 214A     		ldr	r2, .L21+52
 511 01ac 1178     		ldrb	r1, [r2]
 512 01ae 0623     		movs	r3, #6
 513 01b0 0B43     		orrs	r3, r1
 514 01b2 DBB2     		uxtb	r3, r3
 515 01b4 1370     		strb	r3, [r2]
 516              	.LBE3:
 455:Generated_Source\PSoC4/cyfitter_cfg.c **** 	}
 456:Generated_Source\PSoC4/cyfitter_cfg.c **** 
 457:Generated_Source\PSoC4/cyfitter_cfg.c **** 	/* Perform second pass device configuration. These items must be configured in specific order afte
 458:Generated_Source\PSoC4/cyfitter_cfg.c **** 	/* IOPINS0_0 Starting address: CYDEV_GPIO_PRT0_BASE */
 459:Generated_Source\PSoC4/cyfitter_cfg.c **** 	CY_SET_REG32((void *)(CYDEV_GPIO_PRT0_BASE), 0x0000003Fu);
 517              		.loc 1 459 0
 518 01b6 3F22     		movs	r2, #63
 519 01b8 1E4B     		ldr	r3, .L21+56
 520 01ba 1A60     		str	r2, [r3]
 460:Generated_Source\PSoC4/cyfitter_cfg.c **** 	CY_SET_REG32((void *)(CYREG_GPIO_PRT0_PC), 0x00DB6DB6u);
 521              		.loc 1 460 0
 522 01bc 1E4A     		ldr	r2, .L21+60
 523 01be 1F4B     		ldr	r3, .L21+64
 524 01c0 1A60     		str	r2, [r3]
 461:Generated_Source\PSoC4/cyfitter_cfg.c **** 
 462:Generated_Source\PSoC4/cyfitter_cfg.c **** 	/* IOPINS0_1 Starting address: CYDEV_GPIO_PRT1_BASE */
 463:Generated_Source\PSoC4/cyfitter_cfg.c **** 	CY_SET_REG32((void *)(CYDEV_GPIO_PRT1_BASE), 0x00000004u);
 525              		.loc 1 463 0
 526 01c2 0422     		movs	r2, #4
 527 01c4 1E4B     		ldr	r3, .L21+68
 528 01c6 1A60     		str	r2, [r3]
 464:Generated_Source\PSoC4/cyfitter_cfg.c **** 	CY_SET_REG32((void *)(CYREG_GPIO_PRT1_PC), 0x00000786u);
 529              		.loc 1 464 0
 530 01c8 1E4A     		ldr	r2, .L21+72
 531 01ca 1F4B     		ldr	r3, .L21+76
 532 01cc 1A60     		str	r2, [r3]
 465:Generated_Source\PSoC4/cyfitter_cfg.c **** 
 466:Generated_Source\PSoC4/cyfitter_cfg.c **** 	/* IOPINS0_2 Starting address: CYDEV_GPIO_PRT2_BASE */
 467:Generated_Source\PSoC4/cyfitter_cfg.c **** 	CY_SET_REG32((void *)(CYDEV_GPIO_PRT2_BASE), 0x00000040u);
 533              		.loc 1 467 0
 534 01ce 4022     		movs	r2, #64
 535 01d0 1E4B     		ldr	r3, .L21+80
 536 01d2 1A60     		str	r2, [r3]
 468:Generated_Source\PSoC4/cyfitter_cfg.c **** 	CY_SET_REG32((void *)(CYREG_GPIO_PRT2_PC), 0x00180000u);
 537              		.loc 1 468 0
 538 01d4 C022     		movs	r2, #192
 539 01d6 5203     		lsls	r2, r2, #13
 540 01d8 1D4B     		ldr	r3, .L21+84
 541 01da 1A60     		str	r2, [r3]
 469:Generated_Source\PSoC4/cyfitter_cfg.c **** 
ARM GAS  C:\Users\carles\AppData\Local\Temp\ccygwPHG.s 			page 19


 470:Generated_Source\PSoC4/cyfitter_cfg.c **** 	/* IOPINS0_3 Starting address: CYDEV_GPIO_PRT3_BASE */
 471:Generated_Source\PSoC4/cyfitter_cfg.c **** 	CY_SET_REG32((void *)(CYDEV_GPIO_PRT3_BASE), 0x000000C1u);
 542              		.loc 1 471 0
 543 01dc C122     		movs	r2, #193
 544 01de 1D4B     		ldr	r3, .L21+88
 545 01e0 1A60     		str	r2, [r3]
 472:Generated_Source\PSoC4/cyfitter_cfg.c **** 	CY_SET_REG32((void *)(CYREG_GPIO_PRT3_PC), 0x00D80000u);
 546              		.loc 1 472 0
 547 01e2 D822     		movs	r2, #216
 548 01e4 1204     		lsls	r2, r2, #16
 549 01e6 1C4B     		ldr	r3, .L21+92
 550 01e8 1A60     		str	r2, [r3]
 473:Generated_Source\PSoC4/cyfitter_cfg.c **** 	CY_SET_REG32((void *)(CYREG_GPIO_PRT3_PC2), 0x00000001u);
 551              		.loc 1 473 0
 552 01ea 0122     		movs	r2, #1
 553 01ec 1B4B     		ldr	r3, .L21+96
 554 01ee 1A60     		str	r2, [r3]
 474:Generated_Source\PSoC4/cyfitter_cfg.c **** 
 475:Generated_Source\PSoC4/cyfitter_cfg.c **** 
 476:Generated_Source\PSoC4/cyfitter_cfg.c **** 	/* Setup clocks based on selections from Clock DWR */
 477:Generated_Source\PSoC4/cyfitter_cfg.c **** 	ClockSetup();
 555              		.loc 1 477 0
 556 01f0 FFF706FF 		bl	ClockSetup
 557              	.LVL35:
 478:Generated_Source\PSoC4/cyfitter_cfg.c **** 
 479:Generated_Source\PSoC4/cyfitter_cfg.c **** 	/* Perform basic analog initialization to defaults */
 480:Generated_Source\PSoC4/cyfitter_cfg.c **** 	AnalogSetDefault();
 558              		.loc 1 480 0
 559 01f4 FFF7FEFF 		bl	AnalogSetDefault
 560              	.LVL36:
 481:Generated_Source\PSoC4/cyfitter_cfg.c **** 
 482:Generated_Source\PSoC4/cyfitter_cfg.c **** }
 561              		.loc 1 482 0
 562              		@ sp needed
 563              	.LVL37:
 564 01f8 10BD     		pop	{r4, pc}
 565              	.L22:
 566 01fa C046     		.align	2
 567              	.L21:
 568 01fc 6CF02E40 		.word	1076818028
 569 0200 00000000 		.word	.LANCHOR0
 570 0204 033000EE 		.word	-301977597
 571 0208 00000240 		.word	1073872896
 572 020c 00010240 		.word	1073873152
 573 0210 00500F40 		.word	1074745344
 574 0214 08500F40 		.word	1074745352
 575 0218 10500F40 		.word	1074745360
 576 021c 18500F40 		.word	1074745368
 577 0220 20500F40 		.word	1074745376
 578 0224 30500F40 		.word	1074745392
 579 0228 15550500 		.word	349461
 580 022c 20012040 		.word	1075839264
 581 0230 00700F40 		.word	1074753536
 582 0234 00000440 		.word	1074003968
 583 0238 B66DDB00 		.word	14380470
 584 023c 08000440 		.word	1074003976
 585 0240 00010440 		.word	1074004224
ARM GAS  C:\Users\carles\AppData\Local\Temp\ccygwPHG.s 			page 20


 586 0244 86070000 		.word	1926
 587 0248 08010440 		.word	1074004232
 588 024c 00020440 		.word	1074004480
 589 0250 08020440 		.word	1074004488
 590 0254 00030440 		.word	1074004736
 591 0258 08030440 		.word	1074004744
 592 025c 18030440 		.word	1074004760
 593              		.cfi_endproc
 594              	.LFE9:
 595              		.size	cyfitter_cfg, .-cyfitter_cfg
 596              		.section	.rodata
 597              		.align	2
 598              		.set	.LANCHOR0,. + 0
 599              		.type	cfg_memset_list.4922, %object
 600              		.size	cfg_memset_list.4922, 12
 601              	cfg_memset_list.4922:
 602 0000 00300F40 		.word	1074737152
 603 0004 0004     		.short	1024
 604 0006 00400F40 		.4byte	1074741248
 605 000a 0004     		.short	1024
 606              		.type	cy_cfg_data_table.4917, %object
 607              		.size	cy_cfg_data_table.4917, 58
 608              	cy_cfg_data_table.4917:
 609 000c E2       		.byte	-30
 610 000d 02       		.byte	2
 611 000e E0       		.byte	-32
 612 000f 01       		.byte	1
 613 0010 E2       		.byte	-30
 614 0011 04       		.byte	4
 615 0012 EE       		.byte	-18
 616 0013 02       		.byte	2
 617 0014 51       		.byte	81
 618 0015 10       		.byte	16
 619 0016 57       		.byte	87
 620 0017 08       		.byte	8
 621 0018 85       		.byte	-123
 622 0019 10       		.byte	16
 623 001a D4       		.byte	-44
 624 001b 60       		.byte	96
 625 001c E2       		.byte	-30
 626 001d 40       		.byte	64
 627 001e 07       		.byte	7
 628 001f 04       		.byte	4
 629 0020 53       		.byte	83
 630 0021 02       		.byte	2
 631 0022 83       		.byte	-125
 632 0023 06       		.byte	6
 633 0024 AF       		.byte	-81
 634 0025 08       		.byte	8
 635 0026 C0       		.byte	-64
 636 0027 80       		.byte	-128
 637 0028 D4       		.byte	-44
 638 0029 80       		.byte	-128
 639 002a E0       		.byte	-32
 640 002b 80       		.byte	-128
 641 002c E2       		.byte	-30
 642 002d 20       		.byte	32
ARM GAS  C:\Users\carles\AppData\Local\Temp\ccygwPHG.s 			page 21


 643 002e EE       		.byte	-18
 644 002f 40       		.byte	64
 645 0030 13       		.byte	19
 646 0031 40       		.byte	64
 647 0032 17       		.byte	23
 648 0033 11       		.byte	17
 649 0034 3C       		.byte	60
 650 0035 01       		.byte	1
 651 0036 87       		.byte	-121
 652 0037 01       		.byte	1
 653 0038 C4       		.byte	-60
 654 0039 07       		.byte	7
 655 003a CE       		.byte	-50
 656 003b 01       		.byte	1
 657 003c 80       		.byte	-128
 658 003d 01       		.byte	1
 659 003e 83       		.byte	-125
 660 003f 10       		.byte	16
 661 0040 94       		.byte	-108
 662 0041 01       		.byte	1
 663 0042 9B       		.byte	-101
 664 0043 10       		.byte	16
 665 0044 AF       		.byte	-81
 666 0045 40       		.byte	64
 667 0046 0000     		.space	2
 668              		.type	cy_cfg_addr_table.4916, %object
 669              		.size	cy_cfg_addr_table.4916, 24
 670              	cy_cfg_addr_table.4916:
 671 0048 01310F40 		.word	1074737409
 672 004c 03330F40 		.word	1074737923
 673 0050 05400F40 		.word	1074741253
 674 0054 09410F40 		.word	1074741513
 675 0058 06420F40 		.word	1074741766
 676 005c 05430F40 		.word	1074742021
 677              		.text
 678              	.Letext0:
 679              		.file 2 "c:\\program files (x86)\\cypress\\psoc creator\\4.2\\psoc creator\\import\\gnu\\arm\\5.4.
 680              		.file 3 "Generated_Source\\PSoC4\\cytypes.h"
 681              		.file 4 "Generated_Source\\PSoC4\\CyLFClk.h"
 682              		.file 5 "Generated_Source\\PSoC4\\CyLib.h"